target datalayout = "e-m:e-p270:32:32-p271:32:32-p272:64:64-i64:64-i128:128-f80:128-n8:16:32:64-S128"
target triple = "x86_64-pc-linux-gnu"

%struct.ForEachState = type { ptr, i32 }
%struct.List = type { i32, i32, i32, ptr, [0 x %union.ListCell] }
%union.ListCell = type { ptr }

; Function Attrs: nounwind uwtable
define dso_local ptr @GetPubPartitionOptionRelations(ptr noundef %0, i32 noundef %1, i32 noundef %2) #0 {
  %4 = alloca ptr, align 8
  %5 = alloca i32, align 4
  %6 = alloca i32, align 4
  %7 = alloca ptr, align 8
  %8 = alloca ptr, align 8
  %9 = alloca %struct.ForEachState, align 8
  %10 = alloca i32, align 4
  store ptr %0, ptr %4, align 8
  store i32 %1, ptr %5, align 4
  store i32 %2, ptr %6, align 4
  %11 = load i32, ptr %6, align 4
  %12 = call signext i8 @get_rel_relkind(i32 noundef %11)
  %13 = sext i8 %12 to i32
  %14 = icmp eq i32 %13, 112
  br i1 %14, label %15, label %81

15:                                               ; preds = %3
  %16 = load i32, ptr %5, align 4
  %17 = icmp ne i32 %16, 0
  br i1 %17, label %18, label %81

18:                                               ; preds = %15
  call void @llvm.lifetime.start.p0(i64 8, ptr %7) #7
  %19 = load i32, ptr %6, align 4
  %20 = call ptr @find_all_inheritors(i32 noundef %19, i32 noundef 0, ptr noundef null)
  store ptr %20, ptr %7, align 8
  %21 = load i32, ptr %5, align 4
  %22 = icmp eq i32 %21, 2
  br i1 %22, label %23, label %27

23:                                               ; preds = %18
  %24 = load ptr, ptr %4, align 8
  %25 = load ptr, ptr %7, align 8
  %26 = call ptr @list_concat(ptr noundef %24, ptr noundef %25)
  store ptr %26, ptr %4, align 8
  br label %80

27:                                               ; preds = %18
  %28 = load i32, ptr %5, align 4
  %29 = icmp eq i32 %28, 1
  br i1 %29, label %30, label %78

30:                                               ; preds = %27
  call void @llvm.lifetime.start.p0(i64 8, ptr %8) #7
  call void @llvm.lifetime.start.p0(i64 16, ptr %9) #7
  %31 = getelementptr inbounds nuw %struct.ForEachState, ptr %9, i32 0, i32 0
  %32 = load ptr, ptr %7, align 8
  store ptr %32, ptr %31, align 8
  %33 = getelementptr inbounds nuw %struct.ForEachState, ptr %9, i32 0, i32 1
  store i32 0, ptr %33, align 8
  %34 = getelementptr i8, ptr %9, i64 12
  call void @llvm.memset.p0.i64(ptr align 4 %34, i8 0, i64 4, i1 false)
  br label %35

35:                                               ; preds = %73, %30
  %36 = getelementptr inbounds nuw %struct.ForEachState, ptr %9, i32 0, i32 0
  %37 = load ptr, ptr %36, align 8
  %38 = icmp ne ptr %37, null
  br i1 %38, label %39, label %56

39:                                               ; preds = %35
  %40 = getelementptr inbounds nuw %struct.ForEachState, ptr %9, i32 0, i32 1
  %41 = load i32, ptr %40, align 8
  %42 = getelementptr inbounds nuw %struct.ForEachState, ptr %9, i32 0, i32 0
  %43 = load ptr, ptr %42, align 8
  %44 = getelementptr inbounds nuw %struct.List, ptr %43, i32 0, i32 1
  %45 = load i32, ptr %44, align 4
  %46 = icmp slt i32 %41, %45
  br i1 %46, label %47, label %56

47:                                               ; preds = %39
  %48 = getelementptr inbounds nuw %struct.ForEachState, ptr %9, i32 0, i32 0
  %49 = load ptr, ptr %48, align 8
  %50 = getelementptr inbounds nuw %struct.List, ptr %49, i32 0, i32 3
  %51 = load ptr, ptr %50, align 8
  %52 = getelementptr inbounds nuw %struct.ForEachState, ptr %9, i32 0, i32 1
  %53 = load i32, ptr %52, align 8
  %54 = sext i32 %53 to i64
  %55 = getelementptr inbounds %union.ListCell, ptr %51, i64 %54
  store ptr %55, ptr %8, align 8
  br label %57

56:                                               ; preds = %39, %35
  store ptr null, ptr %8, align 8
  br label %57

57:                                               ; preds = %56, %47
  %58 = phi i32 [ 1, %47 ], [ 0, %56 ]
  %59 = icmp ne i32 %58, 0
  br i1 %59, label %61, label %60

60:                                               ; preds = %57
  call void @llvm.lifetime.end.p0(i64 16, ptr %9) #7
  br label %77

61:                                               ; preds = %57
  call void @llvm.lifetime.start.p0(i64 4, ptr %10) #7
  %62 = load ptr, ptr %8, align 8
  %63 = load i32, ptr %62, align 8
  store i32 %63, ptr %10, align 4
  %64 = load i32, ptr %10, align 4
  %65 = call signext i8 @get_rel_relkind(i32 noundef %64)
  %66 = sext i8 %65 to i32
  %67 = icmp ne i32 %66, 112
  br i1 %67, label %68, label %72

68:                                               ; preds = %61
  %69 = load ptr, ptr %4, align 8
  %70 = load i32, ptr %10, align 4
  %71 = call ptr @lappend_oid(ptr noundef %69, i32 noundef %70)
  store ptr %71, ptr %4, align 8
  br label %72

72:                                               ; preds = %68, %61
  call void @llvm.lifetime.end.p0(i64 4, ptr %10) #7
  br label %73

73:                                               ; preds = %72
  %74 = getelementptr inbounds nuw %struct.ForEachState, ptr %9, i32 0, i32 1
  %75 = load i32, ptr %74, align 8
  %76 = add i32 %75, 1
  store i32 %76, ptr %74, align 8
  br label %35, !llvm.loop !8

77:                                               ; preds = %60
  call void @llvm.lifetime.end.p0(i64 8, ptr %8) #7
  br label %79

78:                                               ; preds = %27
  br label %79

79:                                               ; preds = %78, %77
  br label %80

80:                                               ; preds = %79, %23
  call void @llvm.lifetime.end.p0(i64 8, ptr %7) #7
  br label %85

81:                                               ; preds = %15, %3
  %82 = load ptr, ptr %4, align 8
  %83 = load i32, ptr %6, align 4
  %84 = call ptr @lappend_oid(ptr noundef %82, i32 noundef %83)
  store ptr %84, ptr %4, align 8
  br label %85

85:                                               ; preds = %81, %80
  %86 = load ptr, ptr %4, align 8
  ret ptr %86
}