; Function Attrs: nounwind uwtable
define dso_local ptr @GetPubPartitionOptionRelations(ptr noundef %0, i32 noundef %1, i32 noundef %2) local_unnamed_addr #0 {
  %4 = tail call signext i8 @get_rel_relkind(i32 noundef %2) #6
  %5 = icmp eq i8 %4, 112
  %6 = icmp ne i32 %1, 0
  %or.cond = and i1 %6, %5
  br i1 %or.cond, label %7, label %25

7:                                                ; preds = %3
  %8 = tail call ptr @find_all_inheritors(i32 noundef %2, i32 noundef 0, ptr noundef null) #6
  switch i32 %1, label %.thread [
    i32 2, label %13
    i32 1, label %.preheader
  ]

.preheader:                                       ; preds = %7
  %9 = getelementptr inbounds nuw i8, ptr %8, i64 4
  %.not = icmp eq ptr %8, null
  br i1 %.not, label %.thread, label %.lr.ph

.lr.ph:                                           ; preds = %.preheader
  %10 = getelementptr inbounds nuw i8, ptr %8, i64 16
  %11 = load i32, ptr %9, align 4
  %12 = icmp sgt i32 %11, 0
  br i1 %12, label %.lr.ph33, label %.thread

13:                                               ; preds = %7
  %14 = tail call ptr @list_concat(ptr noundef %0, ptr noundef %8) #6
  br label %.thread

.lr.ph33:                                         ; preds = %.lr.ph, %21
  %indvars.iv = phi i64 [ %indvars.iv.next, %21 ], [ 0, %.lr.ph ]
  %.12731 = phi ptr [ %.2, %21 ], [ %0, %.lr.ph ]
  %15 = load ptr, ptr %10, align 8
  %16 = getelementptr inbounds nuw %union.ListCell, ptr %15, i64 %indvars.iv
  %17 = load i32, ptr %16, align 8
  %18 = tail call signext i8 @get_rel_relkind(i32 noundef %17) #6
  %.not23 = icmp eq i8 %18, 112
  br i1 %.not23, label %21, label %19

19:                                               ; preds = %.lr.ph33
  %20 = tail call ptr @lappend_oid(ptr noundef %.12731, i32 noundef %17) #6
  br label %21

21:                                               ; preds = %19, %.lr.ph33
  %.2 = phi ptr [ %20, %19 ], [ %.12731, %.lr.ph33 ]
  %indvars.iv.next = add nuw nsw i64 %indvars.iv, 1
  %22 = load i32, ptr %9, align 4
  %23 = sext i32 %22 to i64
  %24 = icmp slt i64 %indvars.iv.next, %23
  br i1 %24, label %.lr.ph33, label %.thread

25:                                               ; preds = %3
  %26 = tail call ptr @lappend_oid(ptr noundef %0, i32 noundef %2) #6
  br label %.thread

.thread:                                          ; preds = %21, %.preheader, %.lr.ph, %13, %7, %25
  %.3 = phi ptr [ %26, %25 ], [ %14, %13 ], [ %0, %7 ], [ %0, %.preheader ], [ %0, %.lr.ph ], [ %.2, %21 ]
  ret ptr %.3
}